target datalayout = "e-m:e-p270:32:32-p271:32:32-p272:64:64-i64:64-i128:128-f80:128-n8:16:32:64-S128"
target triple = "x86_64-pc-linux-gnu"

%struct.bz_stream = type { ptr, i32, i32, i32, ptr, i32, i32, i32, ptr, ptr, ptr, ptr }
%struct.EState = type { ptr, i32, i32, i32, ptr, ptr, ptr, i32, ptr, ptr, ptr, ptr, i32, i32, i32, i32, i32, i32, i32, i32, i32, i32, [256 x i8], [256 x i8], i32, i32, i32, i32, i32, i32, i32, i32, [258 x i32], [18002 x i8], [18002 x i8], [6 x [258 x i8]], [6 x [258 x i32]], [6 x [258 x i32]], [258 x [4 x i32]] }

; Function Attrs: nounwind uwtable
define i32 @BZ2_bzCompressEnd(ptr noundef %0) #0 {
  %2 = alloca i32, align 4
  %3 = alloca ptr, align 8
  %4 = alloca ptr, align 8
  store ptr %0, ptr %3, align 8
  %5 = load ptr, ptr %3, align 8
  %6 = icmp eq ptr %5, null
  br i1 %6, label %7, label %8

7:                                                ; preds = %1
  store i32 -2, ptr %2, align 4
  br label %79

8:                                                ; preds = %1
  %9 = load ptr, ptr %3, align 8
  %10 = getelementptr inbounds %struct.bz_stream, ptr %9, i32 0, i32 8
  %11 = load ptr, ptr %10, align 8
  store ptr %11, ptr %4, align 8
  %12 = load ptr, ptr %4, align 8
  %13 = icmp eq ptr %12, null
  br i1 %13, label %14, label %15

14:                                               ; preds = %8
  store i32 -2, ptr %2, align 4
  br label %79

15:                                               ; preds = %8
  %16 = load ptr, ptr %4, align 8
  %17 = getelementptr inbounds %struct.EState, ptr %16, i32 0, i32 0
  %18 = load ptr, ptr %17, align 8
  %19 = load ptr, ptr %3, align 8
  %20 = icmp ne ptr %18, %19
  br i1 %20, label %21, label %22

21:                                               ; preds = %15
  store i32 -2, ptr %2, align 4
  br label %79

22:                                               ; preds = %15
  %23 = load ptr, ptr %4, align 8
  %24 = getelementptr inbounds %struct.EState, ptr %23, i32 0, i32 4
  %25 = load ptr, ptr %24, align 8
  %26 = icmp ne ptr %25, null
  br i1 %26, label %27, label %37

27:                                               ; preds = %22
  %28 = load ptr, ptr %3, align 8
  %29 = getelementptr inbounds %struct.bz_stream, ptr %28, i32 0, i32 10
  %30 = load ptr, ptr %29, align 8
  %31 = load ptr, ptr %3, align 8
  %32 = getelementptr inbounds %struct.bz_stream, ptr %31, i32 0, i32 11
  %33 = load ptr, ptr %32, align 8
  %34 = load ptr, ptr %4, align 8
  %35 = getelementptr inbounds %struct.EState, ptr %34, i32 0, i32 4
  %36 = load ptr, ptr %35, align 8
  call void %30(ptr noundef %33, ptr noundef %36)
  br label %37

37:                                               ; preds = %27, %22
  %38 = load ptr, ptr %4, align 8
  %39 = getelementptr inbounds %struct.EState, ptr %38, i32 0, i32 5
  %40 = load ptr, ptr %39, align 8
  %41 = icmp ne ptr %40, null
  br i1 %41, label %42, label %52

42:                                               ; preds = %37
  %43 = load ptr, ptr %3, align 8
  %44 = getelementptr inbounds %struct.bz_stream, ptr %43, i32 0, i32 10
  %45 = load ptr, ptr %44, align 8
  %46 = load ptr, ptr %3, align 8
  %47 = getelementptr inbounds %struct.bz_stream, ptr %46, i32 0, i32 11
  %48 = load ptr, ptr %47, align 8
  %49 = load ptr, ptr %4, align 8
  %50 = getelementptr inbounds %struct.EState, ptr %49, i32 0, i32 5
  %51 = load ptr, ptr %50, align 8
  call void %45(ptr noundef %48, ptr noundef %51)
  br label %52

52:                                               ; preds = %42, %37
  %53 = load ptr, ptr %4, align 8
  %54 = getelementptr inbounds %struct.EState, ptr %53, i32 0, i32 6
  %55 = load ptr, ptr %54, align 8
  %56 = icmp ne ptr %55, null
  br i1 %56, label %57, label %67

57:                                               ; preds = %52
  %58 = load ptr, ptr %3, align 8
  %59 = getelementptr inbounds %struct.bz_stream, ptr %58, i32 0, i32 10
  %60 = load ptr, ptr %59, align 8
  %61 = load ptr, ptr %3, align 8
  %62 = getelementptr inbounds %struct.bz_stream, ptr %61, i32 0, i32 11
  %63 = load ptr, ptr %62, align 8
  %64 = load ptr, ptr %4, align 8
  %65 = getelementptr inbounds %struct.EState, ptr %64, i32 0, i32 6
  %66 = load ptr, ptr %65, align 8
  call void %60(ptr noundef %63, ptr noundef %66)
  br label %67

67:                                               ; preds = %57, %52
  %68 = load ptr, ptr %3, align 8
  %69 = getelementptr inbounds %struct.bz_stream, ptr %68, i32 0, i32 10
  %70 = load ptr, ptr %69, align 8
  %71 = load ptr, ptr %3, align 8
  %72 = getelementptr inbounds %struct.bz_stream, ptr %71, i32 0, i32 11
  %73 = load ptr, ptr %72, align 8
  %74 = load ptr, ptr %3, align 8
  %75 = getelementptr inbounds %struct.bz_stream, ptr %74, i32 0, i32 8
  %76 = load ptr, ptr %75, align 8
  call void %70(ptr noundef %73, ptr noundef %76)
  %77 = load ptr, ptr %3, align 8
  %78 = getelementptr inbounds %struct.bz_stream, ptr %77, i32 0, i32 8
  store ptr null, ptr %78, align 8
  store i32 0, ptr %2, align 4
  br label %79

79:                                               ; preds = %67, %21, %14, %7
  %80 = load i32, ptr %2, align 4
  ret i32 %80
}